; Function Attrs: mustprogress uwtable
define void @_ZNK32pxrInternal_v0_24__pxrReserved__10UsdZipFile8IteratorptEv(ptr dead_on_unwind noalias writable sret(%"class.pxrInternal_v0_24__pxrReserved__::UsdZipFile::Iterator::_ArrowProxy") align 8 %0, ptr nocapture noundef nonnull readonly align 8 dereferenceable(8) %1) local_unnamed_addr #0 align 2 personality ptr @__gxx_personality_v0 {
  %3 = alloca %"class.std::allocator", align 1
  %4 = alloca %"class.std::__cxx11::basic_string", align 8
  call void @llvm.lifetime.start.p0(i64 1, ptr nonnull %3)
  %5 = load ptr, ptr %1, align 8, !noalias !12
  %.not.i = icmp eq ptr %5, null
  br i1 %.not.i, label %15, label %6

6:                                                ; preds = %2
  %7 = getelementptr inbounds i8, ptr %5, i64 48
  %8 = load ptr, ptr %7, align 8, !noalias !12
  %9 = getelementptr inbounds i8, ptr %5, i64 44
  %10 = load i16, ptr %9, align 4, !noalias !12
  %11 = zext i16 %10 to i64
  call void @_ZNSaIcEC1Ev(ptr noundef nonnull align 1 dereferenceable(1) %3) #21, !noalias !12
  invoke void @_ZNSt7__cxx1112basic_stringIcSt11char_traitsIcESaIcEEC1EPKcmRKS3_(ptr noundef nonnull align 8 dereferenceable(32) %4, ptr noundef %8, i64 noundef %11, ptr noundef nonnull align 1 dereferenceable(1) %3)
          to label %12 unwind label %13

12:                                               ; preds = %6
  call void @_ZNSaIcED1Ev(ptr noundef nonnull align 1 dereferenceable(1) %3) #21
  br label %_ZNK32pxrInternal_v0_24__pxrReserved__10UsdZipFile8IteratordeB5cxx11Ev.exit

common.resume:                                    ; preds = %16, %13
  %common.resume.op = phi { ptr, i32 } [ %14, %13 ], [ %17, %16 ]
  resume { ptr, i32 } %common.resume.op

13:                                               ; preds = %6
  %14 = landingpad { ptr, i32 }
          cleanup
  call void @_ZNSaIcED1Ev(ptr noundef nonnull align 1 dereferenceable(1) %3) #21
  br label %common.resume

15:                                               ; preds = %2
  call void @_ZNSt7__cxx1112basic_stringIcSt11char_traitsIcESaIcEEC1Ev(ptr noundef nonnull align 8 dereferenceable(32) %4) #21
  br label %_ZNK32pxrInternal_v0_24__pxrReserved__10UsdZipFile8IteratordeB5cxx11Ev.exit

_ZNK32pxrInternal_v0_24__pxrReserved__10UsdZipFile8IteratordeB5cxx11Ev.exit: ; preds = %12, %15
  call void @llvm.lifetime.end.p0(i64 1, ptr nonnull %3)
  invoke void @_ZNSt7__cxx1112basic_stringIcSt11char_traitsIcESaIcEEC1ERKS4_(ptr noundef nonnull align 8 dereferenceable(32) %0, ptr noundef nonnull align 8 dereferenceable(32) %4)
          to label %_ZN32pxrInternal_v0_24__pxrReserved__10UsdZipFile8Iterator11_ArrowProxyC2ERKNSt7__cxx1112basic_stringIcSt11char_traitsIcESaIcEEE.exit unwind label %16

_ZN32pxrInternal_v0_24__pxrReserved__10UsdZipFile8Iterator11_ArrowProxyC2ERKNSt7__cxx1112basic_stringIcSt11char_traitsIcESaIcEEE.exit: ; preds = %_ZNK32pxrInternal_v0_24__pxrReserved__10UsdZipFile8IteratordeB5cxx11Ev.exit
  call void @_ZNSt7__cxx1112basic_stringIcSt11char_traitsIcESaIcEED1Ev(ptr noundef nonnull align 8 dereferenceable(32) %4) #21
  ret void

16:                                               ; preds = %_ZNK32pxrInternal_v0_24__pxrReserved__10UsdZipFile8IteratordeB5cxx11Ev.exit
  %17 = landingpad { ptr, i32 }
          cleanup
  call void @_ZNSt7__cxx1112basic_stringIcSt11char_traitsIcESaIcEED1Ev(ptr noundef nonnull align 8 dereferenceable(32) %4) #21
  br label %common.resume
}